target datalayout = "e-m:e-p270:32:32-p271:32:32-p272:64:64-i64:64-i128:128-f80:128-n8:16:32:64-S128"
target triple = "x86_64-pc-linux-gnu"

%struct.evhttp_request = type { %struct.anon.8, ptr, i32, ptr, ptr, ptr, i16, ptr, i32, i32, i64, i64, ptr, ptr, i8, i8, i32, ptr, ptr, i64, i8, ptr, ptr, ptr, ptr, ptr, ptr, ptr, ptr }
%struct.anon.8 = type { ptr, ptr }
%struct.evkeyvalq = type { ptr, ptr }
%struct.evkeyval = type { %struct.anon.10, ptr, ptr }
%struct.anon.10 = type { ptr, ptr }
%struct.evhttp_uri = type { i32, ptr, ptr, ptr, i32, ptr, ptr, ptr, ptr }

@.str.35 = private unnamed_addr constant [5 x i8] c"Host\00", align 1
@.str.36 = private unnamed_addr constant [11 x i8] c"%s: malloc\00", align 1
@__func__.evhttp_request_get_host = private unnamed_addr constant [24 x i8] c"evhttp_request_get_host\00", align 1

; Function Attrs: nounwind uwtable
define ptr @evhttp_find_header(ptr noundef %0, ptr noundef %1) #0 {
  %3 = alloca ptr, align 8
  %4 = alloca ptr, align 8
  %5 = alloca ptr, align 8
  %6 = alloca ptr, align 8
  %7 = alloca i32, align 4
  store ptr %0, ptr %4, align 8
  store ptr %1, ptr %5, align 8
  call void @llvm.lifetime.start.p0(i64 8, ptr %6) #11
  %8 = load ptr, ptr %4, align 8
  %9 = getelementptr inbounds nuw %struct.evkeyvalq, ptr %8, i32 0, i32 0
  %10 = load ptr, ptr %9, align 8
  store ptr %10, ptr %6, align 8
  br label %11

11:                                               ; preds = %26, %2
  %12 = load ptr, ptr %6, align 8
  %13 = icmp ne ptr %12, null
  br i1 %13, label %14, label %31

14:                                               ; preds = %11
  %15 = load ptr, ptr %6, align 8
  %16 = getelementptr inbounds nuw %struct.evkeyval, ptr %15, i32 0, i32 1
  %17 = load ptr, ptr %16, align 8
  %18 = load ptr, ptr %5, align 8
  %19 = call i32 @evutil_ascii_strcasecmp(ptr noundef %17, ptr noundef %18)
  %20 = icmp eq i32 %19, 0
  br i1 %20, label %21, label %25

21:                                               ; preds = %14
  %22 = load ptr, ptr %6, align 8
  %23 = getelementptr inbounds nuw %struct.evkeyval, ptr %22, i32 0, i32 2
  %24 = load ptr, ptr %23, align 8
  store ptr %24, ptr %3, align 8
  store i32 1, ptr %7, align 4
  br label %32

25:                                               ; preds = %14
  br label %26

26:                                               ; preds = %25
  %27 = load ptr, ptr %6, align 8
  %28 = getelementptr inbounds nuw %struct.evkeyval, ptr %27, i32 0, i32 0
  %29 = getelementptr inbounds nuw %struct.anon.10, ptr %28, i32 0, i32 0
  %30 = load ptr, ptr %29, align 8
  store ptr %30, ptr %6, align 8
  br label %11, !llvm.loop !7

31:                                               ; preds = %11
  store ptr null, ptr %3, align 8
  store i32 1, ptr %7, align 4
  br label %32

32:                                               ; preds = %31, %21
  call void @llvm.lifetime.end.p0(i64 8, ptr %6) #11
  %33 = load ptr, ptr %3, align 8
  ret ptr %33
}

; Function Attrs: nounwind uwtable
define ptr @evhttp_uri_get_host(ptr noundef %0) #0 {
  %2 = alloca ptr, align 8
  store ptr %0, ptr %2, align 8
  %3 = load ptr, ptr %2, align 8
  %4 = getelementptr inbounds nuw %struct.evhttp_uri, ptr %3, i32 0, i32 3
  %5 = load ptr, ptr %4, align 8
  ret ptr %5
}

; Function Attrs: nounwind uwtable
define ptr @evhttp_request_get_host(ptr noundef %0) #0 {
  %2 = alloca ptr, align 8
  %3 = alloca ptr, align 8
  %4 = alloca ptr, align 8
  %5 = alloca i32, align 4
  %6 = alloca ptr, align 8
  %7 = alloca i64, align 8
  store ptr %0, ptr %3, align 8
  call void @llvm.lifetime.start.p0(i64 8, ptr %4) #11
  store ptr null, ptr %4, align 8
  %8 = load ptr, ptr %3, align 8
  %9 = getelementptr inbounds nuw %struct.evhttp_request, ptr %8, i32 0, i32 7
  %10 = load ptr, ptr %9, align 8
  %11 = icmp ne ptr %10, null
  br i1 %11, label %12, label %16

12:                                               ; preds = %1
  %13 = load ptr, ptr %3, align 8
  %14 = getelementptr inbounds nuw %struct.evhttp_request, ptr %13, i32 0, i32 7
  %15 = load ptr, ptr %14, align 8
  store ptr %15, ptr %2, align 8
  store i32 1, ptr %5, align 4
  br label %107

16:                                               ; preds = %1
  %17 = load ptr, ptr %3, align 8
  %18 = getelementptr inbounds nuw %struct.evhttp_request, ptr %17, i32 0, i32 13
  %19 = load ptr, ptr %18, align 8
  %20 = icmp ne ptr %19, null
  br i1 %20, label %21, label %26

21:                                               ; preds = %16
  %22 = load ptr, ptr %3, align 8
  %23 = getelementptr inbounds nuw %struct.evhttp_request, ptr %22, i32 0, i32 13
  %24 = load ptr, ptr %23, align 8
  %25 = call ptr @evhttp_uri_get_host(ptr noundef %24)
  store ptr %25, ptr %4, align 8
  br label %26

26:                                               ; preds = %21, %16
  %27 = load ptr, ptr %4, align 8
  %28 = icmp ne ptr %27, null
  br i1 %28, label %105, label %29

29:                                               ; preds = %26
  %30 = load ptr, ptr %3, align 8
  %31 = getelementptr inbounds nuw %struct.evhttp_request, ptr %30, i32 0, i32 3
  %32 = load ptr, ptr %31, align 8
  %33 = icmp ne ptr %32, null
  br i1 %33, label %34, label %105

34:                                               ; preds = %29
  call void @llvm.lifetime.start.p0(i64 8, ptr %6) #11
  call void @llvm.lifetime.start.p0(i64 8, ptr %7) #11
  %35 = load ptr, ptr %3, align 8
  %36 = getelementptr inbounds nuw %struct.evhttp_request, ptr %35, i32 0, i32 3
  %37 = load ptr, ptr %36, align 8
  %38 = call ptr @evhttp_find_header(ptr noundef %37, ptr noundef @.str.35)
  store ptr %38, ptr %4, align 8
  %39 = load ptr, ptr %4, align 8
  %40 = icmp ne ptr %39, null
  br i1 %40, label %41, label %101

41:                                               ; preds = %34
  %42 = load ptr, ptr %4, align 8
  %43 = load ptr, ptr %4, align 8
  %44 = call i64 @strlen(ptr noundef %43) #12
  %45 = getelementptr inbounds nuw i8, ptr %42, i64 %44
  %46 = getelementptr inbounds i8, ptr %45, i64 -1
  store ptr %46, ptr %6, align 8
  br label %47

47:                                               ; preds = %58, %41
  %48 = load ptr, ptr %6, align 8
  %49 = load ptr, ptr %4, align 8
  %50 = icmp ugt ptr %48, %49
  br i1 %50, label %51, label %56

51:                                               ; preds = %47
  %52 = load ptr, ptr %6, align 8
  %53 = load i8, ptr %52, align 1
  %54 = call i32 @EVUTIL_ISDIGIT_(i8 noundef signext %53)
  %55 = icmp ne i32 %54, 0
  br label %56

56:                                               ; preds = %51, %47
  %57 = phi i1 [ false, %47 ], [ %55, %51 ]
  br i1 %57, label %58, label %61

58:                                               ; preds = %56
  %59 = load ptr, ptr %6, align 8
  %60 = getelementptr inbounds i8, ptr %59, i32 -1
  store ptr %60, ptr %6, align 8
  br label %47, !llvm.loop !31

61:                                               ; preds = %56
  %62 = load ptr, ptr %6, align 8
  %63 = load ptr, ptr %4, align 8
  %64 = icmp ugt ptr %62, %63
  br i1 %64, label %65, label %100

65:                                               ; preds = %61
  %66 = load ptr, ptr %6, align 8
  %67 = load i8, ptr %66, align 1
  %68 = sext i8 %67 to i32
  %69 = icmp eq i32 %68, 58
  br i1 %69, label %70, label %100

70:                                               ; preds = %65
  %71 = load ptr, ptr %6, align 8
  %72 = load ptr, ptr %4, align 8
  %73 = ptrtoint ptr %71 to i64
  %74 = ptrtoint ptr %72 to i64
  %75 = sub i64 %73, %74
  store i64 %75, ptr %7, align 8
  %76 = load i64, ptr %7, align 8
  %77 = add i64 %76, 1
  %78 = call ptr @event_mm_malloc_(i64 noundef %77)
  %79 = load ptr, ptr %3, align 8
  %80 = getelementptr inbounds nuw %struct.evhttp_request, ptr %79, i32 0, i32 7
  store ptr %78, ptr %80, align 8
  %81 = load ptr, ptr %3, align 8
  %82 = getelementptr inbounds nuw %struct.evhttp_request, ptr %81, i32 0, i32 7
  %83 = load ptr, ptr %82, align 8
  %84 = icmp ne ptr %83, null
  br i1 %84, label %86, label %85

85:                                               ; preds = %70
  call void (ptr, ...) @event_warn(ptr noundef @.str.36, ptr noundef @__func__.evhttp_request_get_host)
  store ptr null, ptr %2, align 8
  store i32 1, ptr %5, align 4
  br label %102

86:                                               ; preds = %70
  %87 = load ptr, ptr %3, align 8
  %88 = getelementptr inbounds nuw %struct.evhttp_request, ptr %87, i32 0, i32 7
  %89 = load ptr, ptr %88, align 8
  %90 = load ptr, ptr %4, align 8
  %91 = load i64, ptr %7, align 8
  call void @llvm.memcpy.p0.p0.i64(ptr align 1 %89, ptr align 1 %90, i64 %91, i1 false)
  %92 = load ptr, ptr %3, align 8
  %93 = getelementptr inbounds nuw %struct.evhttp_request, ptr %92, i32 0, i32 7
  %94 = load ptr, ptr %93, align 8
  %95 = load i64, ptr %7, align 8
  %96 = getelementptr inbounds nuw i8, ptr %94, i64 %95
  store i8 0, ptr %96, align 1
  %97 = load ptr, ptr %3, align 8
  %98 = getelementptr inbounds nuw %struct.evhttp_request, ptr %97, i32 0, i32 7
  %99 = load ptr, ptr %98, align 8
  store ptr %99, ptr %4, align 8
  br label %100

100:                                              ; preds = %86, %65, %61
  br label %101

101:                                              ; preds = %100, %34
  store i32 0, ptr %5, align 4
  br label %102

102:                                              ; preds = %101, %85
  call void @llvm.lifetime.end.p0(i64 8, ptr %7) #11
  call void @llvm.lifetime.end.p0(i64 8, ptr %6) #11
  %103 = load i32, ptr %5, align 4
  switch i32 %103, label %107 [
    i32 0, label %104
  ]

104:                                              ; preds = %102
  br label %105

105:                                              ; preds = %104, %29, %26
  %106 = load ptr, ptr %4, align 8
  store ptr %106, ptr %2, align 8
  store i32 1, ptr %5, align 4
  br label %107

107:                                              ; preds = %105, %102, %12
  call void @llvm.lifetime.end.p0(i64 8, ptr %4) #11
  %108 = load ptr, ptr %2, align 8
  ret ptr %108
}