; Function Attrs: nounwind uwtable
define ptr @evhttp_request_get_host(ptr noundef captures(none) %0) local_unnamed_addr #0 {
  %2 = getelementptr inbounds nuw i8, ptr %0, i64 64
  %3 = load ptr, ptr %2, align 8
  %.not = icmp eq ptr %3, null
  br i1 %.not, label %4, label %evhttp_find_header.exit.thread

4:                                                ; preds = %1
  %5 = getelementptr inbounds nuw i8, ptr %0, i64 104
  %6 = load ptr, ptr %5, align 8
  %.not39 = icmp eq ptr %6, null
  br i1 %.not39, label %.thread, label %7

7:                                                ; preds = %4
  %8 = getelementptr inbounds nuw i8, ptr %6, i64 24
  %9 = load ptr, ptr %8, align 8
  %.not40 = icmp eq ptr %9, null
  br i1 %.not40, label %.thread, label %evhttp_find_header.exit.thread

.thread:                                          ; preds = %4, %7
  %10 = getelementptr inbounds nuw i8, ptr %0, i64 32
  %11 = load ptr, ptr %10, align 8
  %.not41 = icmp eq ptr %11, null
  br i1 %.not41, label %evhttp_find_header.exit.thread, label %.preheader

.preheader:                                       ; preds = %.thread, %12
  %.0.in.i = phi ptr [ %.0.i, %12 ], [ %11, %.thread ]
  %.0.i = load ptr, ptr %.0.in.i, align 8
  %.not.i = icmp eq ptr %.0.i, null
  br i1 %.not.i, label %evhttp_find_header.exit.thread, label %12

12:                                               ; preds = %.preheader
  %13 = getelementptr inbounds nuw i8, ptr %.0.i, i64 16
  %14 = load ptr, ptr %13, align 8
  %15 = tail call i32 @evutil_ascii_strcasecmp(ptr noundef %14, ptr noundef nonnull @.str.35) #18
  %16 = icmp eq i32 %15, 0
  br i1 %16, label %evhttp_find_header.exit, label %.preheader, !llvm.loop !7

evhttp_find_header.exit:                          ; preds = %12
  %17 = getelementptr inbounds nuw i8, ptr %.0.i, i64 24
  %18 = load ptr, ptr %17, align 8
  %.not42 = icmp eq ptr %18, null
  br i1 %.not42, label %evhttp_find_header.exit.thread, label %19

19:                                               ; preds = %evhttp_find_header.exit
  %20 = tail call i64 @strlen(ptr noundef nonnull dereferenceable(1) %18) #17
  %21 = getelementptr inbounds nuw i8, ptr %18, i64 %20
  br label %22

22:                                               ; preds = %24, %19
  %.pn = phi ptr [ %21, %19 ], [ %.030, %24 ]
  %.030 = getelementptr inbounds i8, ptr %.pn, i64 -1
  %23 = icmp ugt ptr %.030, %18
  br i1 %23, label %24, label %evhttp_find_header.exit.thread

24:                                               ; preds = %22
  %25 = load i8, ptr %.030, align 1
  %26 = tail call i32 @EVUTIL_ISDIGIT_(i8 noundef signext %25) #18
  %.not43 = icmp eq i32 %26, 0
  br i1 %.not43, label %.critedge, label %22, !llvm.loop !32

.critedge:                                        ; preds = %24
  %27 = load i8, ptr %.030, align 1
  %28 = icmp eq i8 %27, 58
  br i1 %28, label %29, label %evhttp_find_header.exit.thread

29:                                               ; preds = %.critedge
  %30 = ptrtoint ptr %.030 to i64
  %31 = ptrtoint ptr %18 to i64
  %32 = sub i64 %30, %31
  %33 = add i64 %32, 1
  %34 = tail call ptr @event_mm_malloc_(i64 noundef %33) #18
  store ptr %34, ptr %2, align 8
  %.not44 = icmp eq ptr %34, null
  br i1 %.not44, label %.critedge45, label %35

35:                                               ; preds = %29
  tail call void @llvm.memcpy.p0.p0.i64(ptr nonnull align 1 %34, ptr nonnull align 1 %18, i64 %32, i1 false)
  %36 = load ptr, ptr %2, align 8
  %37 = getelementptr inbounds nuw i8, ptr %36, i64 %32
  store i8 0, ptr %37, align 1
  %38 = load ptr, ptr %2, align 8
  br label %evhttp_find_header.exit.thread

.critedge45:                                      ; preds = %29
  tail call void (ptr, ...) @event_warn(ptr noundef nonnull @.str.36, ptr noundef nonnull @__func__.evhttp_request_get_host) #18
  br label %evhttp_find_header.exit.thread

evhttp_find_header.exit.thread:                   ; preds = %.preheader, %22, %.critedge45, %.critedge, %35, %evhttp_find_header.exit, %7, %.thread, %1
  %.0 = phi ptr [ %3, %1 ], [ %9, %7 ], [ null, %.thread ], [ null, %.critedge45 ], [ null, %evhttp_find_header.exit ], [ %18, %.critedge ], [ %38, %35 ], [ %18, %22 ], [ null, %.preheader ]
  ret ptr %.0
}